target datalayout = "e-m:e-p270:32:32-p271:32:32-p272:64:64-i64:64-i128:128-f80:128-n8:16:32:64-S128"
target triple = "x86_64-unknown-linux-gnu"

%"class.re2::RE2::Options" = type <{ i64, i32, i8, i8, i8, i8, i8, i8, i8, i8, i8, i8, i8, i8 }>
%"class.absl::debian2::string_view" = type { ptr, i64 }
%"class.re2::RE2" = type <{ ptr, %"class.re2::RE2::Options", ptr, ptr, ptr, ptr, i32, i32, %"class.std::__cxx11::basic_string", ptr, ptr, ptr, ptr, %"class.absl::debian2::once_flag", %"class.absl::debian2::once_flag", %"class.absl::debian2::once_flag", [4 x i8] }>
%"class.std::__cxx11::basic_string" = type { %"struct.std::__cxx11::basic_string<char>::_Alloc_hider", i64, %union.anon }
%"struct.std::__cxx11::basic_string<char>::_Alloc_hider" = type { ptr }
%union.anon = type { i64, [8 x i8] }
%"class.absl::debian2::once_flag" = type { %"struct.std::atomic" }
%"struct.std::atomic" = type { %"struct.std::__atomic_base" }
%"struct.std::__atomic_base" = type { i32 }

@_ZN3re23RE27OptionsC1ENS0_13CannedOptionsE = unnamed_addr alias void (ptr, i32), ptr @_ZN3re23RE27OptionsC2ENS0_13CannedOptionsE

; Function Attrs: mustprogress nounwind uwtable
define linkonce_odr void @_ZNSt13__atomic_baseIjEC2Ej(ptr noundef nonnull align 4 dereferenceable(4) %this, i32 noundef %__i) unnamed_addr #0 comdat align 2 {
entry:
  %this.addr = alloca ptr, align 8
  %__i.addr = alloca i32, align 4
  store ptr %this, ptr %this.addr, align 8
  store i32 %__i, ptr %__i.addr, align 4
  %this1 = load ptr, ptr %this.addr, align 8
  %_M_i = getelementptr inbounds %"struct.std::__atomic_base", ptr %this1, i32 0, i32 0
  %0 = load i32, ptr %__i.addr, align 4
  store i32 %0, ptr %_M_i, align 4
  ret void
}

; Function Attrs: mustprogress nounwind uwtable
define linkonce_odr void @_ZNSt6atomicIjEC2Ej(ptr noundef nonnull align 4 dereferenceable(4) %this, i32 noundef %__i) unnamed_addr #0 comdat align 2 {
entry:
  %this.addr = alloca ptr, align 8
  %__i.addr = alloca i32, align 4
  store ptr %this, ptr %this.addr, align 8
  store i32 %__i, ptr %__i.addr, align 4
  %this1 = load ptr, ptr %this.addr, align 8
  %0 = load i32, ptr %__i.addr, align 4
  call void @_ZNSt13__atomic_baseIjEC2Ej(ptr noundef nonnull align 4 dereferenceable(4) %this1, i32 noundef %0) #16
  ret void
}

; Function Attrs: mustprogress nounwind uwtable
define linkonce_odr void @_ZN4absl7debian29once_flagC2Ev(ptr noundef nonnull align 4 dereferenceable(4) %this) unnamed_addr #0 comdat align 2 {
entry:
  %this.addr = alloca ptr, align 8
  store ptr %this, ptr %this.addr, align 8
  %this1 = load ptr, ptr %this.addr, align 8
  %control_ = getelementptr inbounds %"class.absl::debian2::once_flag", ptr %this1, i32 0, i32 0
  call void @_ZNSt6atomicIjEC2Ej(ptr noundef nonnull align 4 dereferenceable(4) %control_, i32 noundef 0) #16
  ret void
}

; Function Attrs: mustprogress nounwind uwtable
define linkonce_odr void @_ZN3re23RE27OptionsC2Ev(ptr noundef nonnull align 8 dereferenceable(23) %this) unnamed_addr #0 comdat align 2 {
entry:
  %this.addr = alloca ptr, align 8
  store ptr %this, ptr %this.addr, align 8
  %this1 = load ptr, ptr %this.addr, align 8
  %max_mem_ = getelementptr inbounds %"class.re2::RE2::Options", ptr %this1, i32 0, i32 0
  store i64 8388608, ptr %max_mem_, align 8
  %encoding_ = getelementptr inbounds %"class.re2::RE2::Options", ptr %this1, i32 0, i32 1
  store i32 1, ptr %encoding_, align 8
  %posix_syntax_ = getelementptr inbounds %"class.re2::RE2::Options", ptr %this1, i32 0, i32 2
  store i8 0, ptr %posix_syntax_, align 4
  %longest_match_ = getelementptr inbounds %"class.re2::RE2::Options", ptr %this1, i32 0, i32 3
  store i8 0, ptr %longest_match_, align 1
  %log_errors_ = getelementptr inbounds %"class.re2::RE2::Options", ptr %this1, i32 0, i32 4
  store i8 1, ptr %log_errors_, align 2
  %literal_ = getelementptr inbounds %"class.re2::RE2::Options", ptr %this1, i32 0, i32 5
  store i8 0, ptr %literal_, align 1
  %never_nl_ = getelementptr inbounds %"class.re2::RE2::Options", ptr %this1, i32 0, i32 6
  store i8 0, ptr %never_nl_, align 8
  %dot_nl_ = getelementptr inbounds %"class.re2::RE2::Options", ptr %this1, i32 0, i32 7
  store i8 0, ptr %dot_nl_, align 1
  %never_capture_ = getelementptr inbounds %"class.re2::RE2::Options", ptr %this1, i32 0, i32 8
  store i8 0, ptr %never_capture_, align 2
  %case_sensitive_ = getelementptr inbounds %"class.re2::RE2::Options", ptr %this1, i32 0, i32 9
  store i8 1, ptr %case_sensitive_, align 1
  %perl_classes_ = getelementptr inbounds %"class.re2::RE2::Options", ptr %this1, i32 0, i32 10
  store i8 0, ptr %perl_classes_, align 4
  %word_boundary_ = getelementptr inbounds %"class.re2::RE2::Options", ptr %this1, i32 0, i32 11
  store i8 0, ptr %word_boundary_, align 1
  %one_line_ = getelementptr inbounds %"class.re2::RE2::Options", ptr %this1, i32 0, i32 12
  store i8 0, ptr %one_line_, align 2
  ret void
}

; Function Attrs: mustprogress uwtable
define void @_ZN3re23RE2C2EN4absl7debian211string_viewE(ptr noundef nonnull align 8 dereferenceable(148) %this, ptr %pattern.coerce0, i64 %pattern.coerce1) unnamed_addr #1 align 2 personality ptr @__gxx_personality_v0 {
entry:
  %pattern = alloca %"class.absl::debian2::string_view", align 8
  %this.addr = alloca ptr, align 8
  %exn.slot = alloca ptr, align 8
  %ehselector.slot = alloca i32, align 4
  %agg.tmp = alloca %"class.absl::debian2::string_view", align 8
  %ref.tmp = alloca %"class.re2::RE2::Options", align 8
  %0 = getelementptr inbounds { ptr, i64 }, ptr %pattern, i32 0, i32 0
  store ptr %pattern.coerce0, ptr %0, align 8
  %1 = getelementptr inbounds { ptr, i64 }, ptr %pattern, i32 0, i32 1
  store i64 %pattern.coerce1, ptr %1, align 8
  store ptr %this, ptr %this.addr, align 8
  %this1 = load ptr, ptr %this.addr, align 8
  %options_ = getelementptr inbounds %"class.re2::RE2", ptr %this1, i32 0, i32 1
  call void @_ZN3re23RE27OptionsC2Ev(ptr noundef nonnull align 8 dereferenceable(23) %options_)
  %prefix_ = getelementptr inbounds %"class.re2::RE2", ptr %this1, i32 0, i32 8
  call void @_ZNSt7__cxx1112basic_stringIcSt11char_traitsIcESaIcEEC1Ev(ptr noundef nonnull align 8 dereferenceable(32) %prefix_) #16
  %rprog_once_ = getelementptr inbounds %"class.re2::RE2", ptr %this1, i32 0, i32 13
  invoke void @_ZN4absl7debian29once_flagC2Ev(ptr noundef nonnull align 4 dereferenceable(4) %rprog_once_)
          to label %invoke.cont unwind label %lpad

invoke.cont:                                      ; preds = %entry
  %named_groups_once_ = getelementptr inbounds %"class.re2::RE2", ptr %this1, i32 0, i32 14
  invoke void @_ZN4absl7debian29once_flagC2Ev(ptr noundef nonnull align 4 dereferenceable(4) %named_groups_once_)
          to label %invoke.cont2 unwind label %lpad

invoke.cont2:                                     ; preds = %invoke.cont
  %group_names_once_ = getelementptr inbounds %"class.re2::RE2", ptr %this1, i32 0, i32 15
  invoke void @_ZN4absl7debian29once_flagC2Ev(ptr noundef nonnull align 4 dereferenceable(4) %group_names_once_)
          to label %invoke.cont3 unwind label %lpad

invoke.cont3:                                     ; preds = %invoke.cont2
  call void @llvm.memcpy.p0.p0.i64(ptr align 8 %agg.tmp, ptr align 8 %pattern, i64 16, i1 false)
  invoke void @_ZN3re23RE27OptionsC1ENS0_13CannedOptionsE(ptr noundef nonnull align 8 dereferenceable(23) %ref.tmp, i32 noundef 0)
          to label %invoke.cont4 unwind label %lpad

invoke.cont4:                                     ; preds = %invoke.cont3
  %2 = getelementptr inbounds { ptr, i64 }, ptr %agg.tmp, i32 0, i32 0
  %3 = load ptr, ptr %2, align 8
  %4 = getelementptr inbounds { ptr, i64 }, ptr %agg.tmp, i32 0, i32 1
  %5 = load i64, ptr %4, align 8
  invoke void @_ZN3re23RE24InitEN4absl7debian211string_viewERKNS0_7OptionsE(ptr noundef nonnull align 8 dereferenceable(148) %this1, ptr %3, i64 %5, ptr noundef nonnull align 8 dereferenceable(23) %ref.tmp)
          to label %invoke.cont5 unwind label %lpad

invoke.cont5:                                     ; preds = %invoke.cont4
  ret void

lpad:                                             ; preds = %invoke.cont4, %invoke.cont3, %invoke.cont2, %invoke.cont, %entry
  %6 = landingpad { ptr, i32 }
          cleanup
  %7 = extractvalue { ptr, i32 } %6, 0
  store ptr %7, ptr %exn.slot, align 8
  %8 = extractvalue { ptr, i32 } %6, 1
  store i32 %8, ptr %ehselector.slot, align 4
  call void @_ZNSt7__cxx1112basic_stringIcSt11char_traitsIcESaIcEED1Ev(ptr noundef nonnull align 8 dereferenceable(32) %prefix_) #16
  br label %eh.resume

eh.resume:                                        ; preds = %lpad
  %exn = load ptr, ptr %exn.slot, align 8
  %sel = load i32, ptr %ehselector.slot, align 4
  %lpad.val = insertvalue { ptr, i32 } poison, ptr %exn, 0
  %lpad.val6 = insertvalue { ptr, i32 } %lpad.val, i32 %sel, 1
  resume { ptr, i32 } %lpad.val6
}