; Function Attrs: mustprogress uwtable
define void @_ZN3re23RE2C2EN4absl7debian211string_viewE(ptr noundef nonnull align 8 dereferenceable(148) initializes((8, 31)) %this, ptr %pattern.coerce0, i64 %pattern.coerce1) unnamed_addr #2 align 2 personality ptr @__gxx_personality_v0 {
entry:
  %ref.tmp = alloca %"class.re2::RE2::Options", align 8
  %options_ = getelementptr inbounds nuw i8, ptr %this, i64 8
  store i64 8388608, ptr %options_, align 8
  %encoding_.i = getelementptr inbounds nuw i8, ptr %this, i64 16
  store i32 1, ptr %encoding_.i, align 8
  %posix_syntax_.i = getelementptr inbounds nuw i8, ptr %this, i64 20
  store i8 0, ptr %posix_syntax_.i, align 4
  %longest_match_.i = getelementptr inbounds nuw i8, ptr %this, i64 21
  store i8 0, ptr %longest_match_.i, align 1
  %log_errors_.i = getelementptr inbounds nuw i8, ptr %this, i64 22
  store i8 1, ptr %log_errors_.i, align 2
  %literal_.i = getelementptr inbounds nuw i8, ptr %this, i64 23
  %case_sensitive_.i = getelementptr inbounds nuw i8, ptr %this, i64 27
  store i32 0, ptr %literal_.i, align 1
  store i8 1, ptr %case_sensitive_.i, align 1
  %perl_classes_.i = getelementptr inbounds nuw i8, ptr %this, i64 28
  store i8 0, ptr %perl_classes_.i, align 4
  %word_boundary_.i = getelementptr inbounds nuw i8, ptr %this, i64 29
  store i8 0, ptr %word_boundary_.i, align 1
  %one_line_.i = getelementptr inbounds nuw i8, ptr %this, i64 30
  store i8 0, ptr %one_line_.i, align 2
  %prefix_ = getelementptr inbounds nuw i8, ptr %this, i64 72
  tail call void @_ZNSt7__cxx1112basic_stringIcSt11char_traitsIcESaIcEEC1Ev(ptr noundef nonnull align 8 dereferenceable(32) %prefix_) #30
  %rprog_once_ = getelementptr inbounds nuw i8, ptr %this, i64 136
  store i32 0, ptr %rprog_once_, align 8
  %named_groups_once_ = getelementptr inbounds nuw i8, ptr %this, i64 140
  store i32 0, ptr %named_groups_once_, align 4
  %group_names_once_ = getelementptr inbounds nuw i8, ptr %this, i64 144
  store i32 0, ptr %group_names_once_, align 8
  invoke void @_ZN3re23RE27OptionsC1ENS0_13CannedOptionsE(ptr noundef nonnull align 8 dereferenceable(23) %ref.tmp, i32 noundef 0)
          to label %invoke.cont4 unwind label %lpad

invoke.cont4:                                     ; preds = %entry
  invoke void @_ZN3re23RE24InitEN4absl7debian211string_viewERKNS0_7OptionsE(ptr noundef nonnull align 8 dereferenceable(148) %this, ptr %pattern.coerce0, i64 %pattern.coerce1, ptr noundef nonnull align 8 dereferenceable(23) %ref.tmp)
          to label %invoke.cont5 unwind label %lpad

invoke.cont5:                                     ; preds = %invoke.cont4
  ret void

lpad:                                             ; preds = %invoke.cont4, %entry
  %0 = landingpad { ptr, i32 }
          cleanup
  call void @_ZNSt7__cxx1112basic_stringIcSt11char_traitsIcESaIcEED1Ev(ptr noundef nonnull align 8 dereferenceable(32) %prefix_) #30
  resume { ptr, i32 } %0
}